target datalayout = "e-m:e-p270:32:32-p271:32:32-p272:64:64-i64:64-i128:128-f80:128-n8:16:32:64-S128"
target triple = "x86_64-pc-linux-gnu"

%struct._xmpp_attr_info = type { ptr, ptr, i8, i8, ptr, ptr }
%struct._xmpp_elem_info = type { i32, ptr, ptr, i32 }
%struct._xmpp_element_t = type { ptr, ptr, ptr, ptr, ptr, ptr, i32, i32, i8 }

@__const.xmpp_features_mechanisms.attrs_info = private unnamed_addr constant [1 x { ptr, ptr, i8, i8, [6 x i8], ptr, ptr }] [{ ptr, ptr, i8, i8, [6 x i8], ptr, ptr } { ptr @.str.5, ptr @hf_xmpp_xmlns, i8 1, i8 1, [6 x i8] zeroinitializer, ptr null, ptr null }], align 16
@__const.xmpp_features_mechanisms.elems_info = private unnamed_addr constant [1 x { i32, [4 x i8], ptr, ptr, i32, [4 x i8] }] [{ i32, [4 x i8], ptr, ptr, i32, [4 x i8] } { i32 0, [4 x i8] zeroinitializer, ptr @.str.84, ptr @xmpp_simple_cdata_elem, i32 1, [4 x i8] zeroinitializer }], align 16
@ett_xmpp_features_mechanisms = external global i32, align 4
@.str.129 = private unnamed_addr constant [11 x i8] c"MECHANISMS\00", align 1

; Function Attrs: null_pointer_is_valid sspstrong uwtable
define internal void @xmpp_features_mechanisms(ptr noundef %0, ptr noundef %1, ptr noundef %2, ptr noundef %3) #0 {
  %5 = alloca ptr, align 8
  %6 = alloca ptr, align 8
  %7 = alloca ptr, align 8
  %8 = alloca ptr, align 8
  %9 = alloca ptr, align 8
  %10 = alloca [1 x %struct._xmpp_attr_info], align 16
  %11 = alloca [1 x %struct._xmpp_elem_info], align 16
  store ptr %0, ptr %5, align 8
  store ptr %1, ptr %6, align 8
  store ptr %2, ptr %7, align 8
  store ptr %3, ptr %8, align 8
  call void @llvm.lifetime.start.p0(i64 8, ptr %9) #6
  call void @llvm.lifetime.start.p0(i64 40, ptr %10) #6
  call void @llvm.memcpy.p0.p0.i64(ptr align 16 %10, ptr align 16 @__const.xmpp_features_mechanisms.attrs_info, i64 40, i1 false)
  call void @llvm.lifetime.start.p0(i64 32, ptr %11) #6
  call void @llvm.memcpy.p0.p0.i64(ptr align 16 %11, ptr align 16 @__const.xmpp_features_mechanisms.elems_info, i64 32, i1 false)
  %12 = load ptr, ptr %5, align 8
  %13 = load ptr, ptr %6, align 8
  %14 = load ptr, ptr %8, align 8
  %15 = getelementptr inbounds nuw %struct._xmpp_element_t, ptr %14, i32 0, i32 6
  %16 = load i32, ptr %15, align 8
  %17 = load ptr, ptr %8, align 8
  %18 = getelementptr inbounds nuw %struct._xmpp_element_t, ptr %17, i32 0, i32 7
  %19 = load i32, ptr %18, align 4
  %20 = load i32, ptr @ett_xmpp_features_mechanisms, align 4
  %21 = call ptr @proto_tree_add_subtree(ptr noundef %12, ptr noundef %13, i32 noundef %16, i32 noundef %19, i32 noundef %20, ptr noundef null, ptr noundef @.str.129)
  store ptr %21, ptr %9, align 8
  %22 = load ptr, ptr %9, align 8
  %23 = load ptr, ptr %8, align 8
  %24 = load ptr, ptr %7, align 8
  %25 = load ptr, ptr %6, align 8
  %26 = getelementptr inbounds [1 x %struct._xmpp_attr_info], ptr %10, i64 0, i64 0
  call void @xmpp_display_attrs(ptr noundef %22, ptr noundef %23, ptr noundef %24, ptr noundef %25, ptr noundef %26, i32 noundef 1)
  %27 = load ptr, ptr %9, align 8
  %28 = load ptr, ptr %8, align 8
  %29 = load ptr, ptr %7, align 8
  %30 = load ptr, ptr %6, align 8
  %31 = getelementptr inbounds [1 x %struct._xmpp_elem_info], ptr %11, i64 0, i64 0
  call void @xmpp_display_elems(ptr noundef %27, ptr noundef %28, ptr noundef %29, ptr noundef %30, ptr noundef %31, i32 noundef 1)
  call void @llvm.lifetime.end.p0(i64 32, ptr %11) #6
  call void @llvm.lifetime.end.p0(i64 40, ptr %10) #6
  call void @llvm.lifetime.end.p0(i64 8, ptr %9) #6
  ret void
}