; Function Attrs: null_pointer_is_valid sspstrong uwtable
define internal void @xmpp_features_mechanisms(ptr noundef %0, ptr noundef %1, ptr noundef %2, ptr noundef %3) #0 {
  %5 = alloca [1 x %struct._xmpp_attr_info], align 16
  %6 = alloca [1 x %struct._xmpp_elem_info], align 16
  call void @llvm.lifetime.start.p0(i64 40, ptr nonnull %5) #5
  call void @llvm.memcpy.p0.p0.i64(ptr noundef nonnull align 16 dereferenceable(40) %5, ptr noundef nonnull align 16 dereferenceable(40) @__const.xmpp_features_mechanisms.attrs_info, i64 40, i1 false)
  call void @llvm.lifetime.start.p0(i64 32, ptr nonnull %6) #5
  call void @llvm.memcpy.p0.p0.i64(ptr noundef nonnull align 16 dereferenceable(32) %6, ptr noundef nonnull align 16 dereferenceable(32) @__const.xmpp_features_mechanisms.elems_info, i64 32, i1 false)
  %7 = getelementptr inbounds nuw i8, ptr %3, i64 48
  %8 = load i32, ptr %7, align 8
  %9 = getelementptr inbounds nuw i8, ptr %3, i64 52
  %10 = load i32, ptr %9, align 4
  %11 = load i32, ptr @ett_xmpp_features_mechanisms, align 4
  %12 = tail call ptr @proto_tree_add_subtree(ptr noundef %0, ptr noundef %1, i32 noundef %8, i32 noundef %10, i32 noundef %11, ptr noundef null, ptr noundef nonnull @.str.129)
  call void @xmpp_display_attrs(ptr noundef %12, ptr noundef %3, ptr noundef %2, ptr noundef %1, ptr noundef nonnull %5, i32 noundef 1)
  call void @xmpp_display_elems(ptr noundef %12, ptr noundef %3, ptr noundef %2, ptr noundef %1, ptr noundef nonnull %6, i32 noundef 1)
  call void @llvm.lifetime.end.p0(i64 32, ptr nonnull %6) #5
  call void @llvm.lifetime.end.p0(i64 40, ptr nonnull %5) #5
  ret void
}